; ModuleID = 'source-C-CXX/36/309.cpp'
source_filename = "source-C-CXX/36/309.cpp"
target datalayout = "e-m:e-p270:32:32-p271:32:32-p272:64:64-i64:64-f80:128-n8:16:32:64-S128"
target triple = "x86_64-pc-linux-gnu"

%"class.std::ios_base::Init" = type { i8 }
%"class.std::basic_istream" = type { i32 (...)**, i64, %"class.std::basic_ios" }
%"class.std::basic_ios" = type { %"class.std::ios_base", %"class.std::basic_ostream"*, i8, i8, %"class.std::basic_streambuf"*, %"class.std::ctype"*, %"class.std::num_put"*, %"class.std::num_get"* }
%"class.std::ios_base" = type { i32 (...)**, i64, i64, i32, i32, i32, %"struct.std::ios_base::_Callback_list"*, %"struct.std::ios_base::_Words", [8 x %"struct.std::ios_base::_Words"], i32, %"struct.std::ios_base::_Words"*, %"class.std::locale" }
%"struct.std::ios_base::_Callback_list" = type { %"struct.std::ios_base::_Callback_list"*, void (i32, %"class.std::ios_base"*, i32)*, i32, i32 }
%"struct.std::ios_base::_Words" = type { i8*, i64 }
%"class.std::locale" = type { %"class.std::locale::_Impl"* }
%"class.std::locale::_Impl" = type { i32, %"class.std::locale::facet"**, i64, %"class.std::locale::facet"**, i8** }
%"class.std::locale::facet" = type <{ i32 (...)**, i32, [4 x i8] }>
%"class.std::basic_ostream" = type { i32 (...)**, %"class.std::basic_ios" }
%"class.std::basic_streambuf" = type { i32 (...)**, i8*, i8*, i8*, i8*, i8*, i8*, %"class.std::locale" }
%"class.std::ctype" = type <{ %"class.std::locale::facet.base", [4 x i8], %struct.__locale_struct*, i8, [7 x i8], i32*, i32*, i16*, i8, [256 x i8], [256 x i8], i8, [6 x i8] }>
%"class.std::locale::facet.base" = type <{ i32 (...)**, i32 }>
%struct.__locale_struct = type { [13 x %struct.__locale_data*], i16*, i32*, i32*, [13 x i8*] }
%struct.__locale_data = type opaque
%"class.std::num_put" = type { %"class.std::locale::facet.base", [4 x i8] }
%"class.std::num_get" = type { %"class.std::locale::facet.base", [4 x i8] }

@_ZStL8__ioinit = internal global %"class.std::ios_base::Init" zeroinitializer, align 1
@__dso_handle = external hidden global i8
@line = dso_local global [1000000 x i8] zeroinitializer, align 16
@ccount = dso_local local_unnamed_addr global [26 x i32] zeroinitializer, align 16
@_ZSt3cin = external global %"class.std::basic_istream", align 8
@_ZSt4cout = external global %"class.std::basic_ostream", align 8
@.str = private unnamed_addr constant [3 x i8] c"no\00", align 1
@llvm.global_ctors = appending global [1 x { i32, void ()*, i8* }] [{ i32, void ()*, i8* } { i32 65535, void ()* @_GLOBAL__sub_I_309.cpp, i8* null }]

declare void @_ZNSt8ios_base4InitC1Ev(%"class.std::ios_base::Init"* nonnull align 1 dereferenceable(1)) unnamed_addr #0

; Function Attrs: nounwind
declare void @_ZNSt8ios_base4InitD1Ev(%"class.std::ios_base::Init"* nonnull align 1 dereferenceable(1)) unnamed_addr #1

; Function Attrs: nofree nounwind
declare i32 @__cxa_atexit(void (i8*)*, i8*, i8*) local_unnamed_addr #2

; Function Attrs: mustprogress norecurse sspstrong uwtable
define dso_local i32 @main() local_unnamed_addr #3 {
  %1 = alloca i8, align 1
  %2 = alloca i32, align 4
  %3 = bitcast i32* %2 to i8*
  call void @llvm.lifetime.start.p0i8(i64 4, i8* nonnull %3) #9
  %4 = call nonnull align 8 dereferenceable(16) %"class.std::basic_istream"* @_ZNSirsERi(%"class.std::basic_istream"* nonnull align 8 dereferenceable(16) @_ZSt3cin, i32* nonnull align 4 dereferenceable(4) %2)
  %5 = load i32, i32* %2, align 4, !tbaa !5
  %6 = add nsw i32 %5, -1
  store i32 %6, i32* %2, align 4, !tbaa !5
  %7 = icmp eq i32 %5, 0
  br i1 %7, label %135, label %8

8:                                                ; preds = %0, %131
  call void @_ZSt17__istream_extractRSiPcl(%"class.std::basic_istream"* nonnull align 8 dereferenceable(16) @_ZSt3cin, i8* nonnull getelementptr inbounds ([1000000 x i8], [1000000 x i8]* @line, i64 0, i64 0), i64 1000000)
  call void @llvm.memset.p0i8.i64(i8* noundef nonnull align 16 dereferenceable(104) bitcast ([26 x i32]* @ccount to i8*), i8 0, i64 104, i1 false)
  %9 = call i64 @strlen(i8* noundef nonnull dereferenceable(1) getelementptr inbounds ([1000000 x i8], [1000000 x i8]* @line, i64 0, i64 0)) #10
  %10 = trunc i64 %9 to i32
  %11 = icmp sgt i32 %10, 0
  br i1 %11, label %12, label %99

12:                                               ; preds = %8
  %13 = and i64 %9, 4294967295
  %14 = and i64 %9, 1
  %15 = icmp eq i64 %13, 1
  br i1 %15, label %18, label %16

16:                                               ; preds = %12
  %17 = sub nsw i64 %13, %14
  br label %32

18:                                               ; preds = %32, %12
  %19 = phi i64 [ 0, %12 ], [ %50, %32 ]
  %20 = icmp eq i64 %14, 0
  br i1 %20, label %29, label %21

21:                                               ; preds = %18
  %22 = getelementptr inbounds [1000000 x i8], [1000000 x i8]* @line, i64 0, i64 %19
  %23 = load i8, i8* %22, align 1, !tbaa !9
  %24 = sext i8 %23 to i64
  %25 = add nsw i64 %24, -97
  %26 = getelementptr inbounds [26 x i32], [26 x i32]* @ccount, i64 0, i64 %25
  %27 = load i32, i32* %26, align 4, !tbaa !5
  %28 = add nsw i32 %27, 1
  store i32 %28, i32* %26, align 4, !tbaa !5
  br label %29

29:                                               ; preds = %18, %21
  br i1 %11, label %30, label %99

30:                                               ; preds = %29
  %31 = and i64 %9, 4294967295
  br label %53

32:                                               ; preds = %32, %16
  %33 = phi i64 [ 0, %16 ], [ %50, %32 ]
  %34 = phi i64 [ %17, %16 ], [ %51, %32 ]
  %35 = getelementptr inbounds [1000000 x i8], [1000000 x i8]* @line, i64 0, i64 %33
  %36 = load i8, i8* %35, align 2, !tbaa !9
  %37 = sext i8 %36 to i64
  %38 = add nsw i64 %37, -97
  %39 = getelementptr inbounds [26 x i32], [26 x i32]* @ccount, i64 0, i64 %38
  %40 = load i32, i32* %39, align 4, !tbaa !5
  %41 = add nsw i32 %40, 1
  store i32 %41, i32* %39, align 4, !tbaa !5
  %42 = or i64 %33, 1
  %43 = getelementptr inbounds [1000000 x i8], [1000000 x i8]* @line, i64 0, i64 %42
  %44 = load i8, i8* %43, align 1, !tbaa !9
  %45 = sext i8 %44 to i64
  %46 = add nsw i64 %45, -97
  %47 = getelementptr inbounds [26 x i32], [26 x i32]* @ccount, i64 0, i64 %46
  %48 = load i32, i32* %47, align 4, !tbaa !5
  %49 = add nsw i32 %48, 1
  store i32 %49, i32* %47, align 4, !tbaa !5
  %50 = add nuw nsw i64 %33, 2
  %51 = add i64 %34, -2
  %52 = icmp eq i64 %51, 0
  br i1 %52, label %18, label %32, !llvm.loop !10

53:                                               ; preds = %30, %94
  %54 = phi i64 [ 0, %30 ], [ %95, %94 ]
  %55 = getelementptr inbounds [1000000 x i8], [1000000 x i8]* @line, i64 0, i64 %54
  %56 = load i8, i8* %55, align 1, !tbaa !9
  %57 = sext i8 %56 to i64
  %58 = add nsw i64 %57, -97
  %59 = getelementptr inbounds [26 x i32], [26 x i32]* @ccount, i64 0, i64 %58
  %60 = load i32, i32* %59, align 4, !tbaa !5
  %61 = icmp eq i32 %60, 1
  br i1 %61, label %62, label %94

62:                                               ; preds = %53
  %63 = trunc i64 %54 to i32
  call void @llvm.lifetime.start.p0i8(i64 1, i8* nonnull %1)
  store i8 %56, i8* %1, align 1, !tbaa !9
  %64 = call nonnull align 8 dereferenceable(8) %"class.std::basic_ostream"* @_ZSt16__ostream_insertIcSt11char_traitsIcEERSt13basic_ostreamIT_T0_ES6_PKS3_l(%"class.std::basic_ostream"* nonnull align 8 dereferenceable(8) @_ZSt4cout, i8* nonnull %1, i64 1)
  call void @llvm.lifetime.end.p0i8(i64 1, i8* nonnull %1)
  %65 = bitcast %"class.std::basic_ostream"* %64 to i8**
  %66 = load i8*, i8** %65, align 8, !tbaa !12
  %67 = getelementptr i8, i8* %66, i64 -24
  %68 = bitcast i8* %67 to i64*
  %69 = load i64, i64* %68, align 8
  %70 = bitcast %"class.std::basic_ostream"* %64 to i8*
  %71 = add nsw i64 %69, 240
  %72 = getelementptr inbounds i8, i8* %70, i64 %71
  %73 = bitcast i8* %72 to %"class.std::ctype"**
  %74 = load %"class.std::ctype"*, %"class.std::ctype"** %73, align 8, !tbaa !14
  %75 = icmp eq %"class.std::ctype"* %74, null
  br i1 %75, label %76, label %77

76:                                               ; preds = %62
  call void @_ZSt16__throw_bad_castv() #11
  unreachable

77:                                               ; preds = %62
  %78 = getelementptr inbounds %"class.std::ctype", %"class.std::ctype"* %74, i64 0, i32 8
  %79 = load i8, i8* %78, align 8, !tbaa !18
  %80 = icmp eq i8 %79, 0
  br i1 %80, label %84, label %81

81:                                               ; preds = %77
  %82 = getelementptr inbounds %"class.std::ctype", %"class.std::ctype"* %74, i64 0, i32 9, i64 10
  %83 = load i8, i8* %82, align 1, !tbaa !9
  br label %90

84:                                               ; preds = %77
  call void @_ZNKSt5ctypeIcE13_M_widen_initEv(%"class.std::ctype"* nonnull align 8 dereferenceable(570) %74)
  %85 = bitcast %"class.std::ctype"* %74 to i8 (%"class.std::ctype"*, i8)***
  %86 = load i8 (%"class.std::ctype"*, i8)**, i8 (%"class.std::ctype"*, i8)*** %85, align 8, !tbaa !12
  %87 = getelementptr inbounds i8 (%"class.std::ctype"*, i8)*, i8 (%"class.std::ctype"*, i8)** %86, i64 6
  %88 = load i8 (%"class.std::ctype"*, i8)*, i8 (%"class.std::ctype"*, i8)** %87, align 8
  %89 = call signext i8 %88(%"class.std::ctype"* nonnull align 8 dereferenceable(570) %74, i8 signext 10)
  br label %90

90:                                               ; preds = %81, %84
  %91 = phi i8 [ %83, %81 ], [ %89, %84 ]
  %92 = call nonnull align 8 dereferenceable(8) %"class.std::basic_ostream"* @_ZNSo3putEc(%"class.std::basic_ostream"* nonnull align 8 dereferenceable(8) %64, i8 signext %91)
  %93 = call nonnull align 8 dereferenceable(8) %"class.std::basic_ostream"* @_ZNSo5flushEv(%"class.std::basic_ostream"* nonnull align 8 dereferenceable(8) %92)
  br label %99

94:                                               ; preds = %53
  %95 = add nuw nsw i64 %54, 1
  %96 = icmp eq i64 %95, %31
  br i1 %96, label %97, label %53, !llvm.loop !20

97:                                               ; preds = %94
  %98 = trunc i64 %9 to i32
  br label %99

99:                                               ; preds = %8, %97, %29, %90
  %100 = phi i32 [ %63, %90 ], [ 0, %29 ], [ %98, %97 ], [ 0, %8 ]
  %101 = icmp eq i32 %100, %10
  br i1 %101, label %102, label %131

102:                                              ; preds = %99
  %103 = call nonnull align 8 dereferenceable(8) %"class.std::basic_ostream"* @_ZSt16__ostream_insertIcSt11char_traitsIcEERSt13basic_ostreamIT_T0_ES6_PKS3_l(%"class.std::basic_ostream"* nonnull align 8 dereferenceable(8) @_ZSt4cout, i8* nonnull getelementptr inbounds ([3 x i8], [3 x i8]* @.str, i64 0, i64 0), i64 2)
  %104 = load i8*, i8** bitcast (%"class.std::basic_ostream"* @_ZSt4cout to i8**), align 8, !tbaa !12
  %105 = getelementptr i8, i8* %104, i64 -24
  %106 = bitcast i8* %105 to i64*
  %107 = load i64, i64* %106, align 8
  %108 = add nsw i64 %107, 240
  %109 = getelementptr inbounds i8, i8* bitcast (%"class.std::basic_ostream"* @_ZSt4cout to i8*), i64 %108
  %110 = bitcast i8* %109 to %"class.std::ctype"**
  %111 = load %"class.std::ctype"*, %"class.std::ctype"** %110, align 8, !tbaa !14
  %112 = icmp eq %"class.std::ctype"* %111, null
  br i1 %112, label %113, label %114

113:                                              ; preds = %102
  call void @_ZSt16__throw_bad_castv() #11
  unreachable

114:                                              ; preds = %102
  %115 = getelementptr inbounds %"class.std::ctype", %"class.std::ctype"* %111, i64 0, i32 8
  %116 = load i8, i8* %115, align 8, !tbaa !18
  %117 = icmp eq i8 %116, 0
  br i1 %117, label %121, label %118

118:                                              ; preds = %114
  %119 = getelementptr inbounds %"class.std::ctype", %"class.std::ctype"* %111, i64 0, i32 9, i64 10
  %120 = load i8, i8* %119, align 1, !tbaa !9
  br label %127

121:                                              ; preds = %114
  call void @_ZNKSt5ctypeIcE13_M_widen_initEv(%"class.std::ctype"* nonnull align 8 dereferenceable(570) %111)
  %122 = bitcast %"class.std::ctype"* %111 to i8 (%"class.std::ctype"*, i8)***
  %123 = load i8 (%"class.std::ctype"*, i8)**, i8 (%"class.std::ctype"*, i8)*** %122, align 8, !tbaa !12
  %124 = getelementptr inbounds i8 (%"class.std::ctype"*, i8)*, i8 (%"class.std::ctype"*, i8)** %123, i64 6
  %125 = load i8 (%"class.std::ctype"*, i8)*, i8 (%"class.std::ctype"*, i8)** %124, align 8
  %126 = call signext i8 %125(%"class.std::ctype"* nonnull align 8 dereferenceable(570) %111, i8 signext 10)
  br label %127

127:                                              ; preds = %118, %121
  %128 = phi i8 [ %120, %118 ], [ %126, %121 ]
  %129 = call nonnull align 8 dereferenceable(8) %"class.std::basic_ostream"* @_ZNSo3putEc(%"class.std::basic_ostream"* nonnull align 8 dereferenceable(8) @_ZSt4cout, i8 signext %128)
  %130 = call nonnull align 8 dereferenceable(8) %"class.std::basic_ostream"* @_ZNSo5flushEv(%"class.std::basic_ostream"* nonnull align 8 dereferenceable(8) %129)
  br label %131

131:                                              ; preds = %127, %99
  %132 = load i32, i32* %2, align 4, !tbaa !5
  %133 = add nsw i32 %132, -1
  store i32 %133, i32* %2, align 4, !tbaa !5
  %134 = icmp eq i32 %132, 0
  br i1 %134, label %135, label %8, !llvm.loop !21

135:                                              ; preds = %131, %0
  call void @llvm.lifetime.end.p0i8(i64 4, i8* nonnull %3) #9
  ret i32 0
}

; Function Attrs: argmemonly mustprogress nofree nosync nounwind willreturn
declare void @llvm.lifetime.start.p0i8(i64 immarg, i8* nocapture) #4

declare nonnull align 8 dereferenceable(16) %"class.std::basic_istream"* @_ZNSirsERi(%"class.std::basic_istream"* nonnull align 8 dereferenceable(16), i32* nonnull align 4 dereferenceable(4)) local_unnamed_addr #0

; Function Attrs: argmemonly mustprogress nofree nounwind willreturn writeonly
declare void @llvm.memset.p0i8.i64(i8* nocapture writeonly, i8, i64, i1 immarg) #5

; Function Attrs: argmemonly mustprogress nofree nounwind readonly willreturn
declare i64 @strlen(i8* nocapture) local_unnamed_addr #6

; Function Attrs: argmemonly mustprogress nofree nosync nounwind willreturn
declare void @llvm.lifetime.end.p0i8(i64 immarg, i8* nocapture) #4

declare void @_ZSt17__istream_extractRSiPcl(%"class.std::basic_istream"* nonnull align 8 dereferenceable(16), i8*, i64) local_unnamed_addr #0

declare nonnull align 8 dereferenceable(8) %"class.std::basic_ostream"* @_ZSt16__ostream_insertIcSt11char_traitsIcEERSt13basic_ostreamIT_T0_ES6_PKS3_l(%"class.std::basic_ostream"* nonnull align 8 dereferenceable(8), i8*, i64) local_unnamed_addr #0

declare nonnull align 8 dereferenceable(8) %"class.std::basic_ostream"* @_ZNSo3putEc(%"class.std::basic_ostream"* nonnull align 8 dereferenceable(8), i8 signext) local_unnamed_addr #0

declare nonnull align 8 dereferenceable(8) %"class.std::basic_ostream"* @_ZNSo5flushEv(%"class.std::basic_ostream"* nonnull align 8 dereferenceable(8)) local_unnamed_addr #0

; Function Attrs: noreturn
declare void @_ZSt16__throw_bad_castv() local_unnamed_addr #7

declare void @_ZNKSt5ctypeIcE13_M_widen_initEv(%"class.std::ctype"* nonnull align 8 dereferenceable(570)) local_unnamed_addr #0

; Function Attrs: sspstrong uwtable
define internal void @_GLOBAL__sub_I_309.cpp() #8 section ".text.startup" {
  tail call void @_ZNSt8ios_base4InitC1Ev(%"class.std::ios_base::Init"* nonnull align 1 dereferenceable(1) @_ZStL8__ioinit)
  %1 = tail call i32 @__cxa_atexit(void (i8*)* bitcast (void (%"class.std::ios_base::Init"*)* @_ZNSt8ios_base4InitD1Ev to void (i8*)*), i8* getelementptr inbounds (%"class.std::ios_base::Init", %"class.std::ios_base::Init"* @_ZStL8__ioinit, i64 0, i32 0), i8* nonnull @__dso_handle) #9
  ret void
}


!llvm.module.flags = !{!0, !1, !2, !3}
!llvm.ident = !{!4}

!0 = !{i32 1, !"wchar_size", i32 4}
!1 = !{i32 7, !"PIC Level", i32 2}
!2 = !{i32 7, !"PIE Level", i32 2}
!3 = !{i32 7, !"uwtable", i32 1}
!4 = !{!"clang version 13.0.0"}
!5 = !{!6, !6, i64 0}
!6 = !{!"int", !7, i64 0}
!7 = !{!"omnipotent char", !8, i64 0}
!8 = !{!"Simple C++ TBAA"}
!9 = !{!7, !7, i64 0}
!10 = distinct !{!10, !11}
!11 = !{!"llvm.loop.mustprogress"}
!12 = !{!13, !13, i64 0}
!13 = !{!"vtable pointer", !8, i64 0}
!14 = !{!15, !16, i64 240}
!15 = !{!"_ZTSSt9basic_iosIcSt11char_traitsIcEE", !16, i64 216, !7, i64 224, !17, i64 225, !16, i64 232, !16, i64 240, !16, i64 248, !16, i64 256}
!16 = !{!"any pointer", !7, i64 0}
!17 = !{!"bool", !7, i64 0}
!18 = !{!19, !7, i64 56}
!19 = !{!"_ZTSSt5ctypeIcE", !16, i64 16, !17, i64 24, !16, i64 32, !16, i64 40, !16, i64 48, !7, i64 56, !7, i64 57, !7, i64 313, !7, i64 569}
!20 = distinct !{!20, !11}
!21 = distinct !{!21, !11}
